(dp0
N(lp1
S'asd'
p2
aS'peopl'
p3
aS'people'
p4
aS'project'
p5
aS'projcct'
p6
aS'hi'
p7
aS'projects'
p8
aS'projectss'
p9
aS'ass'
p10
aS'projects\\'
p11
aS'projecta'
p12
aS'projecct'
p13
aS'ad'
p14
aS'asfd'
p15
aS'twitter'
p16
aS'twitter'
p17
aS'twitter'
p18
aS'twitter'
p19
aS'twitter'
p20
aS'something'
p21
aS'something'
p22
as.