(dp0
N(lp1
(lp2
S'123'
p3
aI21
aa(lp4
S'test5'
p5
aI18
aa(lp6
S'test'
p7
aI17
aa(lp8
S'lab'
p9
aI15
aa(lp10
S'hello'
p11
aI14
aa(lp12
S'11'
p13
aI9
aa(lp14
S'test1'
p15
aI9
aa(lp16
S'112323'
p17
aI7
aa(lp18
S'1'
p19
aI7
aa(lp20
S'test6'
p21
aI6
aa(lp22
S'test3'
p23
aI6
aa(lp24
S'asd'
p25
aI6
aa(lp26
S'test13'
p27
aI5
aa(lp28
S'something'
p29
aI5
aa(lp30
S'test2'
p31
aI4
aa(lp32
S'twitter'
p33
aI4
aa(lp34
S'ased'
p35
aI3
aa(lp36
S'asdasdggasdd'
p37
aI3
aa(lp38
S'test4'
p39
aI3
aa(lp40
S'test8'
p41
aI2
aas.