(dp0
N(lp1
(lp2
S'123'
p3
aI21
aa(lp4
S'test5'
p5
aI18
aa(lp6
S'test'
p7
aI17
aa(lp8
S'lab'
p9
aI15
aa(lp10
S'hello'
p11
aI14
aa(lp12
S'11'
p13
aI9
aa(lp14
S'test1'
p15
aI9
aa(lp16
S'112323'
p17
aI7
aa(lp18
S'1'
p19
aI7
aa(lp20
S'test6'
p21
aI6
aa(lp22
S'test3'
p23
aI6
aa(lp24
S'test13'
p25
aI5
aa(lp26
S'test2'
p27
aI4
aa(lp28
S'ased'
p29
aI3
aa(lp30
S'asdasdggasdd'
p31
aI3
aa(lp32
S'test4'
p33
aI3
aa(lp34
S'asd'
p35
aI3
aa(lp36
S'test8'
p37
aI2
aa(lp38
S'asds123'
p39
aI1
aa(lp40
S'1233'
p41
aI1
aas.